; Function Attrs: mustprogress uwtable
define dso_local noundef ptr @_ZN4Luau7CodeGen11newUserdataEP9lua_Statemi(ptr noundef %0, i64 noundef %1, i32 noundef %2) local_unnamed_addr #2 {
  %4 = tail call noundef ptr @_Z13luaU_newudataP9lua_Statemi(ptr noundef %0, i64 noundef %1, i32 noundef %2)
  %5 = getelementptr inbounds i8, ptr %0, i64 24
  %6 = load ptr, ptr %5, align 8
  %7 = getelementptr inbounds i8, ptr %6, i64 4440
  %8 = sext i32 %2 to i64
  %9 = getelementptr inbounds [128 x ptr], ptr %7, i64 0, i64 %8
  %10 = load ptr, ptr %9, align 8
  %.not = icmp eq ptr %10, null
  br i1 %.not, label %21, label %11

11:                                               ; preds = %3
  %12 = getelementptr inbounds i8, ptr %4, i64 8
  store ptr %10, ptr %12, align 8
  %13 = getelementptr inbounds i8, ptr %4, i64 1
  %14 = load i8, ptr %13, align 1
  %15 = and i8 %14, 4
  %.not13 = icmp eq i8 %15, 0
  br i1 %.not13, label %21, label %16

16:                                               ; preds = %11
  %17 = getelementptr inbounds i8, ptr %10, i64 1
  %18 = load i8, ptr %17, align 1
  %19 = and i8 %18, 3
  %.not14 = icmp eq i8 %19, 0
  br i1 %.not14, label %21, label %20

20:                                               ; preds = %16
  tail call void @_Z13luaC_barrierfP9lua_StateP8GCObjectS2_(ptr noundef nonnull %0, ptr noundef nonnull %4, ptr noundef nonnull %10)
  br label %21

21:                                               ; preds = %11, %16, %20, %3
  ret ptr %4
}